; Function Attrs: mustprogress uwtable
define hidden void @_ZN6Assimp3FBX12FBXConverter13ConvertLightsERKNS0_5ModelERKNSt7__cxx1112basic_stringIcSt11char_traitsIcESaIcEEE(ptr noundef nonnull align 8 captures(none) dereferenceable(489) %0, ptr noundef nonnull readonly align 8 captures(none) dereferenceable(208) %1, ptr noundef nonnull readonly align 8 captures(none) dereferenceable(32) %2) local_unnamed_addr #0 align 2 {
  %4 = getelementptr inbounds nuw i8, ptr %1, i64 104
  %5 = load ptr, ptr %4, align 8
  %6 = getelementptr inbounds nuw i8, ptr %1, i64 112
  %7 = load ptr, ptr %6, align 8
  %.not1415 = icmp eq ptr %5, %7
  br i1 %.not1415, label %._crit_edge, label %.lr.ph

._crit_edge:                                      ; preds = %.thread, %3
  ret void

.lr.ph:                                           ; preds = %3, %.thread
  %.sroa.010.016 = phi ptr [ %13, %.thread ], [ %5, %3 ]
  %8 = load ptr, ptr %.sroa.010.016, align 8
  %9 = icmp eq ptr %8, null
  br i1 %9, label %.thread, label %10

10:                                               ; preds = %.lr.ph
  %11 = tail call ptr @__dynamic_cast(ptr nonnull %8, ptr nonnull @_ZTIN6Assimp3FBX13NodeAttributeE, ptr nonnull @_ZTIN6Assimp3FBX5LightE, i64 0) #28
  %.not = icmp eq ptr %11, null
  br i1 %.not, label %.thread, label %12

12:                                               ; preds = %10
  tail call void @_ZN6Assimp3FBX12FBXConverter12ConvertLightERKNS0_5LightERKNSt7__cxx1112basic_stringIcSt11char_traitsIcESaIcEEE(ptr noundef nonnull align 8 dereferenceable(489) %0, ptr noundef nonnull align 8 dereferenceable(72) %11, ptr noundef nonnull align 8 dereferenceable(32) %2)
  br label %.thread

.thread:                                          ; preds = %.lr.ph, %12, %10
  %13 = getelementptr inbounds nuw i8, ptr %.sroa.010.016, i64 8
  %.not14 = icmp eq ptr %13, %7
  br i1 %.not14, label %._crit_edge, label %.lr.ph
}